target datalayout = "e-m:e-p270:32:32-p271:32:32-p272:64:64-i64:64-i128:128-f80:128-n8:16:32:64-S128"
target triple = "x86_64-unknown-linux-gnu"

%"class.QuantLib::Date" = type { i64 }

; Function Attrs: inlinehint mustprogress uwtable
define linkonce_odr i64 @_ZNK8QuantLib4DateplEl(ptr noundef nonnull align 8 dereferenceable(8) %this, i64 noundef %days) #3 comdat align 2 {
entry:
  %retval = alloca %"class.QuantLib::Date", align 8
  %this.addr = alloca ptr, align 8
  %days.addr = alloca i64, align 8
  store ptr %this, ptr %this.addr, align 8, !tbaa !3
  store i64 %days, ptr %days.addr, align 8, !tbaa !15
  %this1 = load ptr, ptr %this.addr, align 8
  %serialNumber_ = getelementptr inbounds nuw %"class.QuantLib::Date", ptr %this1, i32 0, i32 0
  %0 = load i64, ptr %serialNumber_, align 8, !tbaa !43
  %1 = load i64, ptr %days.addr, align 8, !tbaa !15
  %add = add nsw i64 %0, %1
  call void @_ZN8QuantLib4DateC1El(ptr noundef nonnull align 8 dereferenceable(8) %retval, i64 noundef %add)
  %coerce.dive = getelementptr inbounds nuw %"class.QuantLib::Date", ptr %retval, i32 0, i32 0
  %2 = load i64, ptr %coerce.dive, align 8
  ret i64 %2
}

; Function Attrs: inlinehint mustprogress nounwind uwtable
define linkonce_odr noundef i64 @_ZNK8QuantLib4Date12serialNumberEv(ptr noundef nonnull align 8 dereferenceable(8) %this) #5 comdat align 2 {
entry:
  %this.addr = alloca ptr, align 8
  store ptr %this, ptr %this.addr, align 8, !tbaa !3
  %this1 = load ptr, ptr %this.addr, align 8
  %serialNumber_ = getelementptr inbounds nuw %"class.QuantLib::Date", ptr %this1, i32 0, i32 0
  %0 = load i64, ptr %serialNumber_, align 8, !tbaa !43
  ret i64 %0
}

; Function Attrs: inlinehint mustprogress nounwind uwtable
define linkonce_odr noundef zeroext i1 @_ZN8QuantLibgtERKNS_4DateES2_(ptr noundef nonnull align 8 dereferenceable(8) %d1, ptr noundef nonnull align 8 dereferenceable(8) %d2) #5 comdat {
entry:
  %d1.addr = alloca ptr, align 8
  %d2.addr = alloca ptr, align 8
  store ptr %d1, ptr %d1.addr, align 8, !tbaa !3
  store ptr %d2, ptr %d2.addr, align 8, !tbaa !3
  %0 = load ptr, ptr %d1.addr, align 8, !tbaa !3
  %call = call noundef i64 @_ZNK8QuantLib4Date12serialNumberEv(ptr noundef nonnull align 8 dereferenceable(8) %0)
  %1 = load ptr, ptr %d2.addr, align 8, !tbaa !3
  %call1 = call noundef i64 @_ZNK8QuantLib4Date12serialNumberEv(ptr noundef nonnull align 8 dereferenceable(8) %1)
  %cmp = icmp sgt i64 %call, %call1
  ret i1 %cmp
}

; Function Attrs: mustprogress uwtable
define internal noundef i64 @_ZN8QuantLib12_GLOBAL__N_115daysBetweenImplERKNS_8CalendarERKNS_4DateES6_bb(ptr noundef nonnull align 8 dereferenceable(16) %cal, ptr noundef nonnull align 8 dereferenceable(8) %from, ptr noundef nonnull align 8 dereferenceable(8) %to, i1 noundef zeroext %includeFirst, i1 noundef zeroext %includeLast) #0 {
entry:
  %cal.addr = alloca ptr, align 8
  %from.addr = alloca ptr, align 8
  %to.addr = alloca ptr, align 8
  %includeFirst.addr = alloca i8, align 1
  %includeLast.addr = alloca i8, align 1
  %res = alloca i64, align 8
  %d = alloca %"class.QuantLib::Date", align 8
  store ptr %cal, ptr %cal.addr, align 8, !tbaa !3
  store ptr %from, ptr %from.addr, align 8, !tbaa !3
  store ptr %to, ptr %to.addr, align 8, !tbaa !3
  %storedv = zext i1 %includeFirst to i8
  store i8 %storedv, ptr %includeFirst.addr, align 1, !tbaa !25
  %storedv1 = zext i1 %includeLast to i8
  store i8 %storedv1, ptr %includeLast.addr, align 1, !tbaa !25
  call void @llvm.lifetime.start.p0(i64 8, ptr %res) #16
  %0 = load i8, ptr %includeLast.addr, align 1, !tbaa !25, !range !31, !noundef !32
  %loadedv = trunc i8 %0 to i1
  br i1 %loadedv, label %land.rhs, label %land.end

land.rhs:                                         ; preds = %entry
  %1 = load ptr, ptr %cal.addr, align 8, !tbaa !3
  %2 = load ptr, ptr %to.addr, align 8, !tbaa !3
  %call = call noundef zeroext i1 @_ZNK8QuantLib8Calendar13isBusinessDayERKNS_4DateE(ptr noundef nonnull align 8 dereferenceable(16) %1, ptr noundef nonnull align 8 dereferenceable(8) %2)
  br label %land.end

land.end:                                         ; preds = %land.rhs, %entry
  %3 = phi i1 [ false, %entry ], [ %call, %land.rhs ]
  %conv = zext i1 %3 to i64
  store i64 %conv, ptr %res, align 8, !tbaa !15
  call void @llvm.lifetime.start.p0(i64 8, ptr %d) #16
  %4 = load i8, ptr %includeFirst.addr, align 1, !tbaa !25, !range !31, !noundef !32
  %loadedv2 = trunc i8 %4 to i1
  br i1 %loadedv2, label %cond.true, label %cond.false

cond.true:                                        ; preds = %land.end
  %5 = load ptr, ptr %from.addr, align 8, !tbaa !3
  call void @llvm.memcpy.p0.p0.i64(ptr align 8 %d, ptr align 8 %5, i64 8, i1 false), !tbaa.struct !14
  br label %cond.end

cond.false:                                       ; preds = %land.end
  %6 = load ptr, ptr %from.addr, align 8, !tbaa !3
  %call3 = call i64 @_ZNK8QuantLib4DateplEl(ptr noundef nonnull align 8 dereferenceable(8) %6, i64 noundef 1)
  %coerce.dive = getelementptr inbounds nuw %"class.QuantLib::Date", ptr %d, i32 0, i32 0
  store i64 %call3, ptr %coerce.dive, align 8
  br label %cond.end

cond.end:                                         ; preds = %cond.false, %cond.true
  br label %for.cond

for.cond:                                         ; preds = %for.inc, %cond.end
  %7 = load ptr, ptr %to.addr, align 8, !tbaa !3
  %call4 = call noundef zeroext i1 @_ZN8QuantLibltERKNS_4DateES2_(ptr noundef nonnull align 8 dereferenceable(8) %d, ptr noundef nonnull align 8 dereferenceable(8) %7)
  br i1 %call4, label %for.body, label %for.cond.cleanup

for.cond.cleanup:                                 ; preds = %for.cond
  call void @llvm.lifetime.end.p0(i64 8, ptr %d) #16
  br label %for.end

for.body:                                         ; preds = %for.cond
  %8 = load ptr, ptr %cal.addr, align 8, !tbaa !3
  %call5 = call noundef zeroext i1 @_ZNK8QuantLib8Calendar13isBusinessDayERKNS_4DateE(ptr noundef nonnull align 8 dereferenceable(16) %8, ptr noundef nonnull align 8 dereferenceable(8) %d)
  %conv6 = zext i1 %call5 to i64
  %9 = load i64, ptr %res, align 8, !tbaa !15
  %add = add nsw i64 %9, %conv6
  store i64 %add, ptr %res, align 8, !tbaa !15
  br label %for.inc

for.inc:                                          ; preds = %for.body
  %call7 = call noundef nonnull align 8 dereferenceable(8) ptr @_ZN8QuantLib4DateppEv(ptr noundef nonnull align 8 dereferenceable(8) %d)
  br label %for.cond, !llvm.loop !38

for.end:                                          ; preds = %for.cond.cleanup
  %10 = load i64, ptr %res, align 8, !tbaa !15
  call void @llvm.lifetime.end.p0(i64 8, ptr %res) #16
  ret i64 %10
}

; Function Attrs: inlinehint mustprogress nounwind uwtable
define linkonce_odr noundef zeroext i1 @_ZN8QuantLibltERKNS_4DateES2_(ptr noundef nonnull align 8 dereferenceable(8) %d1, ptr noundef nonnull align 8 dereferenceable(8) %d2) #5 comdat {
entry:
  %d1.addr = alloca ptr, align 8
  %d2.addr = alloca ptr, align 8
  store ptr %d1, ptr %d1.addr, align 8, !tbaa !3
  store ptr %d2, ptr %d2.addr, align 8, !tbaa !3
  %0 = load ptr, ptr %d1.addr, align 8, !tbaa !3
  %call = call noundef i64 @_ZNK8QuantLib4Date12serialNumberEv(ptr noundef nonnull align 8 dereferenceable(8) %0)
  %1 = load ptr, ptr %d2.addr, align 8, !tbaa !3
  %call1 = call noundef i64 @_ZNK8QuantLib4Date12serialNumberEv(ptr noundef nonnull align 8 dereferenceable(8) %1)
  %cmp = icmp slt i64 %call, %call1
  ret i1 %cmp
}

; Function Attrs: mustprogress uwtable
define noundef i64 @_ZNK8QuantLib8Calendar19businessDaysBetweenERKNS_4DateES3_bb(ptr noundef nonnull align 8 dereferenceable(16) %this, ptr noundef nonnull align 8 dereferenceable(8) %from, ptr noundef nonnull align 8 dereferenceable(8) %to, i1 noundef zeroext %includeFirst, i1 noundef zeroext %includeLast) #0 align 2 {
entry:
  %this.addr = alloca ptr, align 8
  %from.addr = alloca ptr, align 8
  %to.addr = alloca ptr, align 8
  %includeFirst.addr = alloca i8, align 1
  %includeLast.addr = alloca i8, align 1
  store ptr %this, ptr %this.addr, align 8, !tbaa !3
  store ptr %from, ptr %from.addr, align 8, !tbaa !3
  store ptr %to, ptr %to.addr, align 8, !tbaa !3
  %storedv = zext i1 %includeFirst to i8
  store i8 %storedv, ptr %includeFirst.addr, align 1, !tbaa !25
  %storedv1 = zext i1 %includeLast to i8
  store i8 %storedv1, ptr %includeLast.addr, align 1, !tbaa !25
  %this2 = load ptr, ptr %this.addr, align 8
  %0 = load ptr, ptr %from.addr, align 8, !tbaa !3
  %1 = load ptr, ptr %to.addr, align 8, !tbaa !3
  %call = call noundef zeroext i1 @_ZN8QuantLibltERKNS_4DateES2_(ptr noundef nonnull align 8 dereferenceable(8) %0, ptr noundef nonnull align 8 dereferenceable(8) %1)
  br i1 %call, label %cond.true, label %cond.false

cond.true:                                        ; preds = %entry
  %2 = load ptr, ptr %from.addr, align 8, !tbaa !3
  %3 = load ptr, ptr %to.addr, align 8, !tbaa !3
  %4 = load i8, ptr %includeFirst.addr, align 1, !tbaa !25, !range !31, !noundef !32
  %loadedv = trunc i8 %4 to i1
  %5 = load i8, ptr %includeLast.addr, align 1, !tbaa !25, !range !31, !noundef !32
  %loadedv3 = trunc i8 %5 to i1
  %call4 = call noundef i64 @_ZN8QuantLib12_GLOBAL__N_115daysBetweenImplERKNS_8CalendarERKNS_4DateES6_bb(ptr noundef nonnull align 8 dereferenceable(16) %this2, ptr noundef nonnull align 8 dereferenceable(8) %2, ptr noundef nonnull align 8 dereferenceable(8) %3, i1 noundef zeroext %loadedv, i1 noundef zeroext %loadedv3)
  br label %cond.end14

cond.false:                                       ; preds = %entry
  %6 = load ptr, ptr %from.addr, align 8, !tbaa !3
  %7 = load ptr, ptr %to.addr, align 8, !tbaa !3
  %call5 = call noundef zeroext i1 @_ZN8QuantLibgtERKNS_4DateES2_(ptr noundef nonnull align 8 dereferenceable(8) %6, ptr noundef nonnull align 8 dereferenceable(8) %7)
  br i1 %call5, label %cond.true6, label %cond.false10

cond.true6:                                       ; preds = %cond.false
  %8 = load ptr, ptr %to.addr, align 8, !tbaa !3
  %9 = load ptr, ptr %from.addr, align 8, !tbaa !3
  %10 = load i8, ptr %includeLast.addr, align 1, !tbaa !25, !range !31, !noundef !32
  %loadedv7 = trunc i8 %10 to i1
  %11 = load i8, ptr %includeFirst.addr, align 1, !tbaa !25, !range !31, !noundef !32
  %loadedv8 = trunc i8 %11 to i1
  %call9 = call noundef i64 @_ZN8QuantLib12_GLOBAL__N_115daysBetweenImplERKNS_8CalendarERKNS_4DateES6_bb(ptr noundef nonnull align 8 dereferenceable(16) %this2, ptr noundef nonnull align 8 dereferenceable(8) %8, ptr noundef nonnull align 8 dereferenceable(8) %9, i1 noundef zeroext %loadedv7, i1 noundef zeroext %loadedv8)
  %sub = sub nsw i64 0, %call9
  br label %cond.end

cond.false10:                                     ; preds = %cond.false
  %12 = load i8, ptr %includeFirst.addr, align 1, !tbaa !25, !range !31, !noundef !32
  %loadedv11 = trunc i8 %12 to i1
  br i1 %loadedv11, label %land.lhs.true, label %land.end

land.lhs.true:                                    ; preds = %cond.false10
  %13 = load i8, ptr %includeLast.addr, align 1, !tbaa !25, !range !31, !noundef !32
  %loadedv12 = trunc i8 %13 to i1
  br i1 %loadedv12, label %land.rhs, label %land.end

land.rhs:                                         ; preds = %land.lhs.true
  %14 = load ptr, ptr %from.addr, align 8, !tbaa !3
  %call13 = call noundef zeroext i1 @_ZNK8QuantLib8Calendar13isBusinessDayERKNS_4DateE(ptr noundef nonnull align 8 dereferenceable(16) %this2, ptr noundef nonnull align 8 dereferenceable(8) %14)
  br label %land.end

land.end:                                         ; preds = %land.rhs, %land.lhs.true, %cond.false10
  %15 = phi i1 [ false, %land.lhs.true ], [ false, %cond.false10 ], [ %call13, %land.rhs ]
  %conv = zext i1 %15 to i64
  br label %cond.end

cond.end:                                         ; preds = %land.end, %cond.true6
  %cond = phi i64 [ %sub, %cond.true6 ], [ %conv, %land.end ]
  br label %cond.end14

cond.end14:                                       ; preds = %cond.end, %cond.true
  %cond15 = phi i64 [ %call4, %cond.true ], [ %cond, %cond.end ]
  ret i64 %cond15
}