; Function Attrs: mustprogress uwtable
define noundef i64 @_ZNK8QuantLib8Calendar19businessDaysBetweenERKNS_4DateES3_bb(ptr noundef nonnull align 8 dereferenceable(16) %this, ptr noundef nonnull align 8 dereferenceable(8) %from, ptr noundef nonnull align 8 dereferenceable(8) %to, i1 noundef zeroext %includeFirst, i1 noundef zeroext %includeLast) local_unnamed_addr #0 align 2 {
entry:
  %retval.i.i13 = alloca %"class.QuantLib::Date", align 8
  %d.i14 = alloca %"class.QuantLib::Date", align 8
  %retval.i.i = alloca %"class.QuantLib::Date", align 8
  %d.i = alloca %"class.QuantLib::Date", align 8
  %0 = load i64, ptr %from, align 8, !tbaa !20
  %1 = load i64, ptr %to, align 8, !tbaa !20
  %cmp.i = icmp slt i64 %0, %1
  br i1 %cmp.i, label %cond.true, label %cond.false

cond.true:                                        ; preds = %entry
  br i1 %includeLast, label %land.rhs.i, label %land.end.i

land.rhs.i:                                       ; preds = %cond.true
  %call.i = tail call noundef zeroext i1 @_ZNK8QuantLib8Calendar13isBusinessDayERKNS_4DateE(ptr noundef nonnull align 8 dereferenceable(16) %this, ptr noundef nonnull align 8 dereferenceable(8) %to)
  %2 = zext i1 %call.i to i64
  br label %land.end.i

land.end.i:                                       ; preds = %land.rhs.i, %cond.true
  %conv.i = phi i64 [ 0, %cond.true ], [ %2, %land.rhs.i ]
  call void @llvm.lifetime.start.p0(i64 8, ptr nonnull %d.i) #22
  br i1 %includeFirst, label %cond.true.i, label %cond.false.i

cond.true.i:                                      ; preds = %land.end.i
  %3 = load i64, ptr %from, align 8, !tbaa !19
  br label %cond.end.i

cond.false.i:                                     ; preds = %land.end.i
  call void @llvm.lifetime.start.p0(i64 8, ptr nonnull %retval.i.i)
  %4 = load i64, ptr %from, align 8, !tbaa !20
  %add.i.i = add nsw i64 %4, 1
  call void @_ZN8QuantLib4DateC1El(ptr noundef nonnull align 8 dereferenceable(8) %retval.i.i, i64 noundef %add.i.i)
  %5 = load i64, ptr %retval.i.i, align 8
  call void @llvm.lifetime.end.p0(i64 8, ptr nonnull %retval.i.i)
  br label %cond.end.i

cond.end.i:                                       ; preds = %cond.false.i, %cond.true.i
  %storemerge.i = phi i64 [ %3, %cond.true.i ], [ %5, %cond.false.i ]
  store i64 %storemerge.i, ptr %d.i, align 8
  %6 = load i64, ptr %to, align 8, !tbaa !20
  %cmp.i5.i = icmp slt i64 %storemerge.i, %6
  br i1 %cmp.i5.i, label %for.body.i, label %_ZN8QuantLib12_GLOBAL__N_115daysBetweenImplERKNS_8CalendarERKNS_4DateES6_bb.exit

for.body.i:                                       ; preds = %cond.end.i, %for.body.i
  %res.06.i = phi i64 [ %add.i, %for.body.i ], [ %conv.i, %cond.end.i ]
  %call5.i = call noundef zeroext i1 @_ZNK8QuantLib8Calendar13isBusinessDayERKNS_4DateE(ptr noundef nonnull align 8 dereferenceable(16) %this, ptr noundef nonnull align 8 dereferenceable(8) %d.i)
  %conv6.i = zext i1 %call5.i to i64
  %add.i = add nuw nsw i64 %res.06.i, %conv6.i
  %call7.i = call noundef nonnull align 8 dereferenceable(8) ptr @_ZN8QuantLib4DateppEv(ptr noundef nonnull align 8 dereferenceable(8) %d.i)
  %7 = load i64, ptr %d.i, align 8, !tbaa !20
  %8 = load i64, ptr %to, align 8, !tbaa !20
  %cmp.i.i = icmp slt i64 %7, %8
  br i1 %cmp.i.i, label %for.body.i, label %_ZN8QuantLib12_GLOBAL__N_115daysBetweenImplERKNS_8CalendarERKNS_4DateES6_bb.exit, !llvm.loop !45

_ZN8QuantLib12_GLOBAL__N_115daysBetweenImplERKNS_8CalendarERKNS_4DateES6_bb.exit: ; preds = %for.body.i, %cond.end.i
  %res.0.lcssa.i = phi i64 [ %conv.i, %cond.end.i ], [ %add.i, %for.body.i ]
  call void @llvm.lifetime.end.p0(i64 8, ptr nonnull %d.i) #22
  br label %cond.end14

cond.false:                                       ; preds = %entry
  %cmp.i12 = icmp sgt i64 %0, %1
  br i1 %cmp.i12, label %cond.true6, label %cond.false10

cond.true6:                                       ; preds = %cond.false
  br i1 %includeFirst, label %land.rhs.i31, label %land.end.i15

land.rhs.i31:                                     ; preds = %cond.true6
  %call.i32 = tail call noundef zeroext i1 @_ZNK8QuantLib8Calendar13isBusinessDayERKNS_4DateE(ptr noundef nonnull align 8 dereferenceable(16) %this, ptr noundef nonnull align 8 dereferenceable(8) %from)
  %9 = zext i1 %call.i32 to i64
  br label %land.end.i15

land.end.i15:                                     ; preds = %land.rhs.i31, %cond.true6
  %conv.i16 = phi i64 [ 0, %cond.true6 ], [ %9, %land.rhs.i31 ]
  call void @llvm.lifetime.start.p0(i64 8, ptr nonnull %d.i14) #22
  br i1 %includeLast, label %cond.true.i30, label %cond.false.i17

cond.true.i30:                                    ; preds = %land.end.i15
  %10 = load i64, ptr %to, align 8, !tbaa !19
  br label %cond.end.i19

cond.false.i17:                                   ; preds = %land.end.i15
  call void @llvm.lifetime.start.p0(i64 8, ptr nonnull %retval.i.i13)
  %11 = load i64, ptr %to, align 8, !tbaa !20
  %add.i.i18 = add nsw i64 %11, 1
  call void @_ZN8QuantLib4DateC1El(ptr noundef nonnull align 8 dereferenceable(8) %retval.i.i13, i64 noundef %add.i.i18)
  %12 = load i64, ptr %retval.i.i13, align 8
  call void @llvm.lifetime.end.p0(i64 8, ptr nonnull %retval.i.i13)
  br label %cond.end.i19

cond.end.i19:                                     ; preds = %cond.false.i17, %cond.true.i30
  %storemerge.i20 = phi i64 [ %10, %cond.true.i30 ], [ %12, %cond.false.i17 ]
  store i64 %storemerge.i20, ptr %d.i14, align 8
  %13 = load i64, ptr %from, align 8, !tbaa !20
  %cmp.i5.i21 = icmp slt i64 %storemerge.i20, %13
  br i1 %cmp.i5.i21, label %for.body.i23, label %_ZN8QuantLib12_GLOBAL__N_115daysBetweenImplERKNS_8CalendarERKNS_4DateES6_bb.exit33

for.body.i23:                                     ; preds = %cond.end.i19, %for.body.i23
  %res.06.i24 = phi i64 [ %add.i27, %for.body.i23 ], [ %conv.i16, %cond.end.i19 ]
  %call5.i25 = call noundef zeroext i1 @_ZNK8QuantLib8Calendar13isBusinessDayERKNS_4DateE(ptr noundef nonnull align 8 dereferenceable(16) %this, ptr noundef nonnull align 8 dereferenceable(8) %d.i14)
  %conv6.i26 = zext i1 %call5.i25 to i64
  %add.i27 = add nuw nsw i64 %res.06.i24, %conv6.i26
  %call7.i28 = call noundef nonnull align 8 dereferenceable(8) ptr @_ZN8QuantLib4DateppEv(ptr noundef nonnull align 8 dereferenceable(8) %d.i14)
  %14 = load i64, ptr %d.i14, align 8, !tbaa !20
  %15 = load i64, ptr %from, align 8, !tbaa !20
  %cmp.i.i29 = icmp slt i64 %14, %15
  br i1 %cmp.i.i29, label %for.body.i23, label %_ZN8QuantLib12_GLOBAL__N_115daysBetweenImplERKNS_8CalendarERKNS_4DateES6_bb.exit33, !llvm.loop !45

_ZN8QuantLib12_GLOBAL__N_115daysBetweenImplERKNS_8CalendarERKNS_4DateES6_bb.exit33: ; preds = %for.body.i23, %cond.end.i19
  %res.0.lcssa.i22 = phi i64 [ %conv.i16, %cond.end.i19 ], [ %add.i27, %for.body.i23 ]
  call void @llvm.lifetime.end.p0(i64 8, ptr nonnull %d.i14) #22
  %sub = sub nsw i64 0, %res.0.lcssa.i22
  br label %cond.end14

cond.false10:                                     ; preds = %cond.false
  %brmerge.demorgan = and i1 %includeFirst, %includeLast
  br i1 %brmerge.demorgan, label %land.rhs, label %cond.end14

land.rhs:                                         ; preds = %cond.false10
  %call13 = tail call noundef zeroext i1 @_ZNK8QuantLib8Calendar13isBusinessDayERKNS_4DateE(ptr noundef nonnull align 8 dereferenceable(16) %this, ptr noundef nonnull align 8 dereferenceable(8) %from)
  %16 = zext i1 %call13 to i64
  br label %cond.end14

cond.end14:                                       ; preds = %land.rhs, %cond.false10, %_ZN8QuantLib12_GLOBAL__N_115daysBetweenImplERKNS_8CalendarERKNS_4DateES6_bb.exit33, %_ZN8QuantLib12_GLOBAL__N_115daysBetweenImplERKNS_8CalendarERKNS_4DateES6_bb.exit
  %cond15 = phi i64 [ %res.0.lcssa.i, %_ZN8QuantLib12_GLOBAL__N_115daysBetweenImplERKNS_8CalendarERKNS_4DateES6_bb.exit ], [ %sub, %_ZN8QuantLib12_GLOBAL__N_115daysBetweenImplERKNS_8CalendarERKNS_4DateES6_bb.exit33 ], [ 0, %cond.false10 ], [ %16, %land.rhs ]
  ret i64 %cond15
}